target datalayout = "e-m:e-p270:32:32-p271:32:32-p272:64:64-i64:64-i128:128-f80:128-n8:16:32:64-S128"
target triple = "x86_64-unknown-linux-gnu"

%"class.ODDLParser::OpenDDLExport" = type { ptr }
%"struct.ODDLParser::Context" = type { ptr }

; Function Attrs: mustprogress uwtable
define hidden noundef zeroext i1 @_ZN10ODDLParser13OpenDDLExport13exportContextEPNS_7ContextERKNSt7__cxx1112basic_stringIcSt11char_traitsIcESaIcEEE(ptr noundef nonnull align 8 dereferenceable(8) %this, ptr noundef %ctx, ptr noundef nonnull align 8 dereferenceable(32) %filename) #0 align 2 {
entry:
  %retval = alloca i1, align 1
  %this.addr = alloca ptr, align 8
  %ctx.addr = alloca ptr, align 8
  %filename.addr = alloca ptr, align 8
  %root = alloca ptr, align 8
  %retValue = alloca i8, align 1
  store ptr %this, ptr %this.addr, align 8
  store ptr %ctx, ptr %ctx.addr, align 8
  store ptr %filename, ptr %filename.addr, align 8
  %this1 = load ptr, ptr %this.addr, align 8
  %0 = load ptr, ptr %ctx.addr, align 8
  %cmp = icmp eq ptr null, %0
  br i1 %cmp, label %if.then, label %if.end

if.then:                                          ; preds = %entry
  store i1 false, ptr %retval, align 1
  br label %return

if.end:                                           ; preds = %entry
  %1 = load ptr, ptr %ctx.addr, align 8
  %m_root = getelementptr inbounds %"struct.ODDLParser::Context", ptr %1, i32 0, i32 0
  %2 = load ptr, ptr %m_root, align 8
  store ptr %2, ptr %root, align 8
  %3 = load ptr, ptr %root, align 8
  %cmp2 = icmp eq ptr null, %3
  br i1 %cmp2, label %if.then3, label %if.end4

if.then3:                                         ; preds = %if.end
  store i1 true, ptr %retval, align 1
  br label %return

if.end4:                                          ; preds = %if.end
  %4 = load ptr, ptr %filename.addr, align 8
  %call = call noundef zeroext i1 @_ZNKSt7__cxx1112basic_stringIcSt11char_traitsIcESaIcEE5emptyEv(ptr noundef nonnull align 8 dereferenceable(32) %4) #11
  br i1 %call, label %if.end9, label %if.then5

if.then5:                                         ; preds = %if.end4
  %m_stream = getelementptr inbounds %"class.ODDLParser::OpenDDLExport", ptr %this1, i32 0, i32 0
  %5 = load ptr, ptr %m_stream, align 8
  %6 = load ptr, ptr %filename.addr, align 8
  %vtable = load ptr, ptr %5, align 8
  %vfn = getelementptr inbounds ptr, ptr %vtable, i64 2
  %7 = load ptr, ptr %vfn, align 8
  %call6 = call noundef zeroext i1 %7(ptr noundef nonnull align 8 dereferenceable(24) %5, ptr noundef nonnull align 8 dereferenceable(32) %6)
  br i1 %call6, label %if.end8, label %if.then7

if.then7:                                         ; preds = %if.then5
  store i1 false, ptr %retval, align 1
  br label %return

if.end8:                                          ; preds = %if.then5
  br label %if.end9

if.end9:                                          ; preds = %if.end8, %if.end4
  %8 = load ptr, ptr %root, align 8
  %call10 = call noundef zeroext i1 @_ZN10ODDLParser13OpenDDLExport10handleNodeEPNS_7DDLNodeE(ptr noundef nonnull align 8 dereferenceable(8) %this1, ptr noundef %8)
  %frombool = zext i1 %call10 to i8
  store i8 %frombool, ptr %retValue, align 1
  %9 = load i8, ptr %retValue, align 1
  %tobool = trunc i8 %9 to i1
  store i1 %tobool, ptr %retval, align 1
  br label %return

return:                                           ; preds = %if.end9, %if.then7, %if.then3, %if.then
  %10 = load i1, ptr %retval, align 1
  ret i1 %10
}