; Function Attrs: mustprogress uwtable
define hidden noundef zeroext i1 @_ZN10ODDLParser13OpenDDLExport13exportContextEPNS_7ContextERKNSt7__cxx1112basic_stringIcSt11char_traitsIcESaIcEEE(ptr noundef nonnull readonly align 8 captures(none) dereferenceable(8) %this, ptr noundef readonly %ctx, ptr noundef nonnull align 8 dereferenceable(32) %filename) local_unnamed_addr #0 align 2 {
entry:
  %cmp = icmp eq ptr %ctx, null
  br i1 %cmp, label %return, label %if.end

if.end:                                           ; preds = %entry
  %0 = load ptr, ptr %ctx, align 8
  %cmp2 = icmp eq ptr %0, null
  br i1 %cmp2, label %return, label %if.end4

if.end4:                                          ; preds = %if.end
  %call = tail call noundef zeroext i1 @_ZNKSt7__cxx1112basic_stringIcSt11char_traitsIcESaIcEE5emptyEv(ptr noundef nonnull align 8 dereferenceable(32) %filename) #14
  br i1 %call, label %if.end9, label %if.then5

if.then5:                                         ; preds = %if.end4
  %1 = load ptr, ptr %this, align 8
  %vtable = load ptr, ptr %1, align 8
  %vfn = getelementptr inbounds nuw i8, ptr %vtable, i64 16
  %2 = load ptr, ptr %vfn, align 8
  %call6 = tail call noundef zeroext i1 %2(ptr noundef nonnull align 8 dereferenceable(24) %1, ptr noundef nonnull align 8 dereferenceable(32) %filename)
  br i1 %call6, label %if.end9, label %return

if.end9:                                          ; preds = %if.then5, %if.end4
  %call10 = tail call noundef zeroext i1 @_ZN10ODDLParser13OpenDDLExport10handleNodeEPNS_7DDLNodeE(ptr noundef nonnull align 8 dereferenceable(8) %this, ptr noundef nonnull %0)
  br label %return

return:                                           ; preds = %if.then5, %if.end, %entry, %if.end9
  %retval.0 = phi i1 [ true, %if.end9 ], [ false, %entry ], [ true, %if.end ], [ false, %if.then5 ]
  ret i1 %retval.0
}